; Function Attrs: mustprogress uwtable
define void @fileset_dlg_add_file(ptr noundef %0, ptr noundef %1) local_unnamed_addr #0 {
  %.not = icmp eq ptr %1, null
  %.not.i = icmp eq ptr %0, null
  %or.cond = or i1 %.not.i, %.not
  br i1 %or.cond, label %_ZN13FileSetDialog7addFileEP14_fileset_entry.exit, label %3

3:                                                ; preds = %2
  %4 = getelementptr inbounds i8, ptr %0, i64 40
  %5 = load i32, ptr %4, align 8
  %.not4.i = icmp eq i32 %5, 0
  %.phi.trans.insert.i = getelementptr inbounds i8, ptr %1, i64 72
  %.pre.i = load ptr, ptr %.phi.trans.insert.i, align 8
  br i1 %.not4.i, label %._crit_edge.i, label %6

6:                                                ; preds = %3
  %7 = getelementptr inbounds i8, ptr %.pre.i, i64 32
  %8 = load i64, ptr %7, align 8
  %9 = trunc i64 %8 to i32
  %10 = getelementptr inbounds i8, ptr %1, i64 88
  store i32 %9, ptr %10, align 8
  br label %._crit_edge.i

._crit_edge.i:                                    ; preds = %6, %3
  %11 = load ptr, ptr %.pre.i, align 8
  %12 = getelementptr inbounds i8, ptr %11, i64 392
  %13 = load ptr, ptr %12, align 8
  tail call void %13(ptr noundef nonnull align 8 dereferenceable(40) %.pre.i, ptr noundef nonnull %0)
  br label %_ZN13FileSetDialog7addFileEP14_fileset_entry.exit

_ZN13FileSetDialog7addFileEP14_fileset_entry.exit: ; preds = %._crit_edge.i, %2
  ret void
}